; Function Attrs: nounwind uwtable
define dso_local nonnull ptr @jsonpath_yy_scan_bytes(ptr noundef readonly captures(none) %0, i32 noundef %1, ptr noundef captures(none) %2) local_unnamed_addr #0 {
  %4 = add i32 %1, 2
  %5 = sext i32 %4 to i64
  %6 = tail call ptr @palloc(i64 noundef %5) #17
  %.not = icmp eq ptr %6, null
  br i1 %.not, label %8, label %.preheader

.preheader:                                       ; preds = %3
  %7 = icmp sgt i32 %1, 0
  br i1 %7, label %.lr.ph.preheader, label %._crit_edge

.lr.ph.preheader:                                 ; preds = %.preheader
  %wide.trip.count = zext nneg i32 %1 to i64
  br label %.lr.ph

8:                                                ; preds = %3
  tail call fastcc void @yy_fatal_error(ptr noundef nonnull @.str.11) #18
  unreachable

.lr.ph:                                           ; preds = %.lr.ph.preheader, %.lr.ph
  %indvars.iv = phi i64 [ 0, %.lr.ph.preheader ], [ %indvars.iv.next, %.lr.ph ]
  %9 = getelementptr inbounds nuw i8, ptr %0, i64 %indvars.iv
  %10 = load i8, ptr %9, align 1
  %11 = getelementptr inbounds nuw i8, ptr %6, i64 %indvars.iv
  store i8 %10, ptr %11, align 1
  %indvars.iv.next = add nuw nsw i64 %indvars.iv, 1
  %exitcond.not = icmp eq i64 %indvars.iv.next, %wide.trip.count
  br i1 %exitcond.not, label %._crit_edge, label %.lr.ph, !llvm.loop !18

._crit_edge:                                      ; preds = %.lr.ph, %.preheader
  %12 = add i32 %1, 1
  %13 = sext i32 %12 to i64
  %14 = getelementptr inbounds i8, ptr %6, i64 %13
  store i8 0, ptr %14, align 1
  %15 = sext i32 %1 to i64
  %16 = getelementptr inbounds i8, ptr %6, i64 %15
  store i8 0, ptr %16, align 1
  %17 = icmp ugt i32 %1, -3
  br i1 %17, label %29, label %18

18:                                               ; preds = %._crit_edge
  %19 = add nsw i64 %5, -2
  %20 = getelementptr inbounds nuw i8, ptr %6, i64 %19
  %21 = load i8, ptr %20, align 1
  %.not.i = icmp eq i8 %21, 0
  br i1 %.not.i, label %22, label %29

22:                                               ; preds = %18
  %23 = getelementptr i8, ptr %6, i64 %5
  %24 = getelementptr i8, ptr %23, i64 -1
  %25 = load i8, ptr %24, align 1
  %.not26.i = icmp eq i8 %25, 0
  br i1 %.not26.i, label %26, label %29

26:                                               ; preds = %22
  %27 = tail call ptr @palloc(i64 noundef 64) #17
  %.not27.i = icmp eq ptr %27, null
  br i1 %.not27.i, label %28, label %30

28:                                               ; preds = %26
  tail call fastcc void @yy_fatal_error(ptr noundef nonnull @.str.10) #18
  unreachable

29:                                               ; preds = %22, %18, %._crit_edge
  tail call fastcc void @yy_fatal_error(ptr noundef nonnull @.str.12) #18
  unreachable

30:                                               ; preds = %26
  %31 = trunc i64 %19 to i32
  %32 = getelementptr inbounds nuw i8, ptr %27, i64 24
  store i32 %31, ptr %32, align 8
  %33 = getelementptr inbounds nuw i8, ptr %27, i64 8
  store ptr %6, ptr %33, align 8
  %34 = getelementptr inbounds nuw i8, ptr %27, i64 16
  store ptr %6, ptr %34, align 8
  %35 = getelementptr inbounds nuw i8, ptr %27, i64 32
  store i32 0, ptr %35, align 8
  store ptr null, ptr %27, align 8
  %36 = getelementptr inbounds nuw i8, ptr %27, i64 28
  store i32 %31, ptr %36, align 4
  %37 = getelementptr inbounds nuw i8, ptr %27, i64 36
  store i32 0, ptr %37, align 4
  %38 = getelementptr inbounds nuw i8, ptr %27, i64 40
  store i32 1, ptr %38, align 8
  %39 = getelementptr inbounds nuw i8, ptr %27, i64 52
  store i32 0, ptr %39, align 4
  %40 = getelementptr inbounds nuw i8, ptr %27, i64 56
  store i32 0, ptr %40, align 8
  tail call void @jsonpath_yy_switch_to_buffer(ptr noundef nonnull %27, ptr noundef %2)
  store i32 1, ptr %35, align 8
  ret ptr %27
}